target datalayout = "e-m:e-p270:32:32-p271:32:32-p272:64:64-i64:64-i128:128-f80:128-n8:16:32:64-S128"
target triple = "x86_64-pc-linux-gnu"

%struct.rb_data_type_struct = type { ptr, %struct.anon, ptr, ptr, i64 }
%struct.anon = type { ptr, ptr, ptr, ptr, [1 x ptr] }

@eECError = internal global i64 0, align 8
@rb_eRuntimeError = external global i64, align 8
@ossl_evp_pkey_type = external constant %struct.rb_data_type_struct, align 8
@.str.66 = private unnamed_addr constant [25 x i8] c"PKEY wasn't initialized!\00", align 1
@.str.67 = private unnamed_addr constant [23 x i8] c"THIS IS NOT A EC PKEY!\00", align 1
@.str.71 = private unnamed_addr constant [17 x i8] c"EVP_PKEY_CTX_new\00", align 1
@.str.72 = private unnamed_addr constant [15 x i8] c"EVP_PKEY_check\00", align 1
@.str.73 = private unnamed_addr constant [22 x i8] c"EVP_PKEY_public_check\00", align 1

; Function Attrs: nounwind sspstrong uwtable
define internal i64 @ossl_ec_key_check_key(i64 noundef %0) #0 {
  %2 = alloca i64, align 8
  %3 = alloca ptr, align 8
  %4 = alloca ptr, align 8
  %5 = alloca ptr, align 8
  %6 = alloca ptr, align 8
  store i64 %0, ptr %2, align 8, !tbaa !6
  call void @llvm.lifetime.start.p0(i64 8, ptr %3) #19
  call void @llvm.lifetime.start.p0(i64 8, ptr %4) #19
  call void @llvm.lifetime.start.p0(i64 8, ptr %5) #19
  br label %7

7:                                                ; preds = %1
  %8 = load i64, ptr %2, align 8, !tbaa !6
  %9 = call ptr @rb_check_typeddata(i64 noundef %8, ptr noundef @ossl_evp_pkey_type)
  store ptr %9, ptr %3, align 8, !tbaa !23
  %10 = load ptr, ptr %3, align 8, !tbaa !23
  %11 = icmp ne ptr %10, null
  br i1 %11, label %14, label %12

12:                                               ; preds = %7
  %13 = load i64, ptr @rb_eRuntimeError, align 8, !tbaa !6
  call void (i64, ptr, ...) @rb_raise(i64 noundef %13, ptr noundef @.str.66) #20
  unreachable

14:                                               ; preds = %7
  br label %15

15:                                               ; preds = %14
  br label %16

16:                                               ; preds = %15
  br label %17

17:                                               ; preds = %16
  call void @llvm.lifetime.start.p0(i64 8, ptr %6) #19
  br label %18

18:                                               ; preds = %17
  br label %19

19:                                               ; preds = %18
  %20 = load i64, ptr %2, align 8, !tbaa !6
  %21 = call ptr @rb_check_typeddata(i64 noundef %20, ptr noundef @ossl_evp_pkey_type)
  store ptr %21, ptr %6, align 8, !tbaa !23
  %22 = load ptr, ptr %6, align 8, !tbaa !23
  %23 = icmp ne ptr %22, null
  br i1 %23, label %26, label %24

24:                                               ; preds = %19
  %25 = load i64, ptr @rb_eRuntimeError, align 8, !tbaa !6
  call void (i64, ptr, ...) @rb_raise(i64 noundef %25, ptr noundef @.str.66) #20
  unreachable

26:                                               ; preds = %19
  br label %27

27:                                               ; preds = %26
  br label %28

28:                                               ; preds = %27
  %29 = load ptr, ptr %6, align 8, !tbaa !23
  %30 = call i32 @EVP_PKEY_get_base_id(ptr noundef %29)
  %31 = icmp ne i32 %30, 408
  br i1 %31, label %32, label %34

32:                                               ; preds = %28
  %33 = load i64, ptr @rb_eRuntimeError, align 8, !tbaa !6
  call void (i64, ptr, ...) @ossl_raise(i64 noundef %33, ptr noundef @.str.67) #20
  unreachable

34:                                               ; preds = %28
  br label %35

35:                                               ; preds = %34
  br label %36

36:                                               ; preds = %35
  %37 = load ptr, ptr %6, align 8, !tbaa !23
  %38 = call ptr @EVP_PKEY_get0_EC_KEY(ptr noundef %37)
  store ptr %38, ptr %5, align 8, !tbaa !21
  call void @llvm.lifetime.end.p0(i64 8, ptr %6) #19
  br label %39

39:                                               ; preds = %36
  br label %40

40:                                               ; preds = %39
  %41 = load ptr, ptr %3, align 8, !tbaa !23
  %42 = call ptr @EVP_PKEY_CTX_new(ptr noundef %41, ptr noundef null)
  store ptr %42, ptr %4, align 8, !tbaa !39
  %43 = load ptr, ptr %4, align 8, !tbaa !39
  %44 = icmp ne ptr %43, null
  br i1 %44, label %47, label %45

45:                                               ; preds = %40
  %46 = load i64, ptr @eECError, align 8, !tbaa !6
  call void (i64, ptr, ...) @ossl_raise(i64 noundef %46, ptr noundef @.str.71) #20
  unreachable

47:                                               ; preds = %40
  %48 = load ptr, ptr %5, align 8, !tbaa !21
  %49 = call ptr @EC_KEY_get0_private_key(ptr noundef %48)
  %50 = icmp ne ptr %49, null
  br i1 %50, label %51, label %59

51:                                               ; preds = %47
  %52 = load ptr, ptr %4, align 8, !tbaa !39
  %53 = call i32 @EVP_PKEY_check(ptr noundef %52)
  %54 = icmp ne i32 %53, 1
  br i1 %54, label %55, label %58

55:                                               ; preds = %51
  %56 = load ptr, ptr %4, align 8, !tbaa !39
  call void @EVP_PKEY_CTX_free(ptr noundef %56)
  %57 = load i64, ptr @eECError, align 8, !tbaa !6
  call void (i64, ptr, ...) @ossl_raise(i64 noundef %57, ptr noundef @.str.72) #20
  unreachable

58:                                               ; preds = %51
  br label %67

59:                                               ; preds = %47
  %60 = load ptr, ptr %4, align 8, !tbaa !39
  %61 = call i32 @EVP_PKEY_public_check(ptr noundef %60)
  %62 = icmp ne i32 %61, 1
  br i1 %62, label %63, label %66

63:                                               ; preds = %59
  %64 = load ptr, ptr %4, align 8, !tbaa !39
  call void @EVP_PKEY_CTX_free(ptr noundef %64)
  %65 = load i64, ptr @eECError, align 8, !tbaa !6
  call void (i64, ptr, ...) @ossl_raise(i64 noundef %65, ptr noundef @.str.73) #20
  unreachable

66:                                               ; preds = %59
  br label %67

67:                                               ; preds = %66, %58
  %68 = load ptr, ptr %4, align 8, !tbaa !39
  call void @EVP_PKEY_CTX_free(ptr noundef %68)
  call void @llvm.lifetime.end.p0(i64 8, ptr %5) #19
  call void @llvm.lifetime.end.p0(i64 8, ptr %4) #19
  call void @llvm.lifetime.end.p0(i64 8, ptr %3) #19
  ret i64 20
}