; Function Attrs: nounwind sspstrong uwtable
define internal noundef i64 @ossl_ec_key_check_key(i64 noundef %0) #0 {
  %2 = tail call ptr @rb_check_typeddata(i64 noundef %0, ptr noundef nonnull @ossl_evp_pkey_type) #7
  %.not = icmp eq ptr %2, null
  br i1 %.not, label %3, label %5

3:                                                ; preds = %1
  %4 = load i64, ptr @rb_eRuntimeError, align 8, !tbaa !6
  tail call void (i64, ptr, ...) @rb_raise(i64 noundef %4, ptr noundef nonnull @.str.66) #9
  unreachable

5:                                                ; preds = %1
  %6 = tail call ptr @rb_check_typeddata(i64 noundef %0, ptr noundef nonnull @ossl_evp_pkey_type) #7
  %.not15 = icmp eq ptr %6, null
  br i1 %.not15, label %7, label %9

7:                                                ; preds = %5
  %8 = load i64, ptr @rb_eRuntimeError, align 8, !tbaa !6
  tail call void (i64, ptr, ...) @rb_raise(i64 noundef %8, ptr noundef nonnull @.str.66) #9
  unreachable

9:                                                ; preds = %5
  %10 = tail call i32 @EVP_PKEY_get_base_id(ptr noundef nonnull %6) #7
  %.not16 = icmp eq i32 %10, 408
  br i1 %.not16, label %13, label %11

11:                                               ; preds = %9
  %12 = load i64, ptr @rb_eRuntimeError, align 8, !tbaa !6
  tail call void (i64, ptr, ...) @ossl_raise(i64 noundef %12, ptr noundef nonnull @.str.67) #9
  unreachable

13:                                               ; preds = %9
  %14 = tail call ptr @EVP_PKEY_get0_EC_KEY(ptr noundef nonnull %6) #7
  %15 = tail call ptr @EVP_PKEY_CTX_new(ptr noundef nonnull %2, ptr noundef null) #7
  %.not17 = icmp eq ptr %15, null
  br i1 %.not17, label %16, label %18

16:                                               ; preds = %13
  %17 = load i64, ptr @eECError, align 8, !tbaa !6
  tail call void (i64, ptr, ...) @ossl_raise(i64 noundef %17, ptr noundef nonnull @.str.71) #9
  unreachable

18:                                               ; preds = %13
  %19 = tail call ptr @EC_KEY_get0_private_key(ptr noundef %14) #7
  %.not18 = icmp eq ptr %19, null
  br i1 %.not18, label %24, label %20

20:                                               ; preds = %18
  %21 = tail call i32 @EVP_PKEY_check(ptr noundef nonnull %15) #7
  %.not20 = icmp eq i32 %21, 1
  br i1 %.not20, label %28, label %22

22:                                               ; preds = %20
  tail call void @EVP_PKEY_CTX_free(ptr noundef nonnull %15) #7
  %23 = load i64, ptr @eECError, align 8, !tbaa !6
  tail call void (i64, ptr, ...) @ossl_raise(i64 noundef %23, ptr noundef nonnull @.str.72) #9
  unreachable

24:                                               ; preds = %18
  %25 = tail call i32 @EVP_PKEY_public_check(ptr noundef nonnull %15) #7
  %.not19 = icmp eq i32 %25, 1
  br i1 %.not19, label %28, label %26

26:                                               ; preds = %24
  tail call void @EVP_PKEY_CTX_free(ptr noundef nonnull %15) #7
  %27 = load i64, ptr @eECError, align 8, !tbaa !6
  tail call void (i64, ptr, ...) @ossl_raise(i64 noundef %27, ptr noundef nonnull @.str.73) #9
  unreachable

28:                                               ; preds = %24, %20
  tail call void @EVP_PKEY_CTX_free(ptr noundef nonnull %15) #7
  ret i64 20
}